target datalayout = "e-m:e-p270:32:32-p271:32:32-p272:64:64-i64:64-i128:128-f80:128-n8:16:32:64-S128"
target triple = "x86_64-unknown-linux-gnu"

%"class.node::MemoryRetainer" = type { ptr }
%"class.node::quic::TokenSecret" = type { %"class.node::MemoryRetainer", [16 x i8] }
%"class.node::quic::RetryToken" = type { %"class.node::MemoryRetainer", [78 x i8], %struct.ngtcp2_vec }
%struct.ngtcp2_vec = type { ptr, i64 }
%"class.std::optional" = type { %"struct.std::_Optional_base" }
%"struct.std::_Optional_base" = type { %"struct.std::_Optional_payload" }
%"struct.std::_Optional_payload" = type { %"struct.std::_Optional_payload.base", [7 x i8] }
%"struct.std::_Optional_payload.base" = type { %"struct.std::_Optional_payload_base.base" }
%"struct.std::_Optional_payload_base.base" = type <{ %"union.std::_Optional_payload_base<node::quic::CID>::_Storage", i8 }>
%"union.std::_Optional_payload_base<node::quic::CID>::_Storage" = type { %"class.node::quic::CID" }
%"class.node::quic::CID" = type { %"class.node::MemoryRetainer", %struct.ngtcp2_cid, ptr }
%struct.ngtcp2_cid = type { i64, [20 x i8] }
%"class.node::SocketAddress" = type { %"class.node::MemoryRetainer", %struct.sockaddr_storage }
%struct.sockaddr_storage = type { i16, [118 x i8], i64 }
%"struct.std::_Optional_payload_base" = type <{ %"union.std::_Optional_payload_base<node::quic::CID>::_Storage", i8, [7 x i8] }>
%struct.sockaddr = type { i16, [14 x i8] }

@_ZN4node4quic10RetryToken30QUIC_MIN_RETRYTOKEN_EXPIRATIONE = linkonce_odr dso_local constant i64 1000000000, comdat, align 8

; Function Attrs: mustprogress nounwind uwtable
define linkonce_odr dso_local void @_ZNSt22_Optional_payload_baseIN4node4quic3CIDEE8_StorageIS2_Lb0EEC2IJR10ngtcp2_cidEEESt10in_place_tDpOT_(ptr noundef nonnull align 8 dereferenceable(48) %this, ptr noundef nonnull align 8 dereferenceable(32) %__args) unnamed_addr #4 comdat align 2 {
entry:
  %this.addr = alloca ptr, align 8
  %__args.addr = alloca ptr, align 8
  store ptr %this, ptr %this.addr, align 8
  store ptr %__args, ptr %__args.addr, align 8
  %this1 = load ptr, ptr %this.addr, align 8
  %0 = load ptr, ptr %__args.addr, align 8
  call void @_ZN4node4quic3CIDC1ERK10ngtcp2_cid(ptr noundef nonnull align 8 dereferenceable(48) %this1, ptr noundef nonnull align 8 dereferenceable(32) %0)
  ret void
}

; Function Attrs: mustprogress nounwind uwtable
define linkonce_odr dso_local void @_ZNSt22_Optional_payload_baseIN4node4quic3CIDEE8_StorageIS2_Lb0EEC2Ev(ptr noundef nonnull align 8 dereferenceable(48) %this) unnamed_addr #4 comdat align 2 {
entry:
  %this.addr = alloca ptr, align 8
  store ptr %this, ptr %this.addr, align 8
  ret void
}

; Function Attrs: mustprogress nounwind uwtable
define linkonce_odr dso_local void @_ZNSt22_Optional_payload_baseIN4node4quic3CIDEEC2IJR10ngtcp2_cidEEESt10in_place_tDpOT_(ptr noundef nonnull align 8 dereferenceable(49) %this, ptr noundef nonnull align 8 dereferenceable(32) %__args) unnamed_addr #4 comdat align 2 {
entry:
  %this.addr = alloca ptr, align 8
  %__args.addr = alloca ptr, align 8
  store ptr %this, ptr %this.addr, align 8
  store ptr %__args, ptr %__args.addr, align 8
  %this1 = load ptr, ptr %this.addr, align 8
  %_M_payload = getelementptr inbounds %"struct.std::_Optional_payload_base", ptr %this1, i32 0, i32 0
  %0 = load ptr, ptr %__args.addr, align 8
  call void @_ZNSt22_Optional_payload_baseIN4node4quic3CIDEE8_StorageIS2_Lb0EEC2IJR10ngtcp2_cidEEESt10in_place_tDpOT_(ptr noundef nonnull align 8 dereferenceable(48) %_M_payload, ptr noundef nonnull align 8 dereferenceable(32) %0)
  %_M_engaged = getelementptr inbounds %"struct.std::_Optional_payload_base", ptr %this1, i32 0, i32 1
  store i8 1, ptr %_M_engaged, align 8
  ret void
}

; Function Attrs: mustprogress nounwind uwtable
define linkonce_odr dso_local void @_ZNSt22_Optional_payload_baseIN4node4quic3CIDEEC2Ev(ptr noundef nonnull align 8 dereferenceable(49) %this) unnamed_addr #4 comdat align 2 {
entry:
  %this.addr = alloca ptr, align 8
  store ptr %this, ptr %this.addr, align 8
  %this1 = load ptr, ptr %this.addr, align 8
  %_M_payload = getelementptr inbounds %"struct.std::_Optional_payload_base", ptr %this1, i32 0, i32 0
  call void @_ZNSt22_Optional_payload_baseIN4node4quic3CIDEE8_StorageIS2_Lb0EEC2Ev(ptr noundef nonnull align 8 dereferenceable(48) %_M_payload) #3
  %_M_engaged = getelementptr inbounds %"struct.std::_Optional_payload_base", ptr %this1, i32 0, i32 1
  store i8 0, ptr %_M_engaged, align 8
  ret void
}

; Function Attrs: mustprogress nounwind uwtable
define linkonce_odr dso_local void @_ZNSt17_Optional_payloadIN4node4quic3CIDELb1ELb0ELb0EECI2St22_Optional_payload_baseIS2_EIJR10ngtcp2_cidEEESt10in_place_tDpOT_(ptr noundef nonnull align 8 dereferenceable(49) %this, ptr noundef nonnull align 8 dereferenceable(32) %0) unnamed_addr #4 comdat align 2 {
entry:
  %this.addr = alloca ptr, align 8
  %.addr = alloca ptr, align 8
  store ptr %this, ptr %this.addr, align 8
  store ptr %0, ptr %.addr, align 8
  %this1 = load ptr, ptr %this.addr, align 8
  %1 = load ptr, ptr %.addr, align 8
  call void @_ZNSt22_Optional_payload_baseIN4node4quic3CIDEEC2IJR10ngtcp2_cidEEESt10in_place_tDpOT_(ptr noundef nonnull align 8 dereferenceable(49) %this1, ptr noundef nonnull align 8 dereferenceable(32) %1)
  ret void
}

; Function Attrs: mustprogress nounwind uwtable
define linkonce_odr dso_local void @_ZNSt17_Optional_payloadIN4node4quic3CIDELb1ELb0ELb0EEC2Ev(ptr noundef nonnull align 8 dereferenceable(49) %this) unnamed_addr #4 comdat align 2 {
entry:
  %this.addr = alloca ptr, align 8
  store ptr %this, ptr %this.addr, align 8
  %this1 = load ptr, ptr %this.addr, align 8
  call void @_ZNSt22_Optional_payload_baseIN4node4quic3CIDEEC2Ev(ptr noundef nonnull align 8 dereferenceable(49) %this1) #3
  ret void
}

; Function Attrs: mustprogress nounwind uwtable
define linkonce_odr dso_local void @_ZNSt17_Optional_payloadIN4node4quic3CIDELb0ELb0ELb0EECI2St22_Optional_payload_baseIS2_EIJR10ngtcp2_cidEEESt10in_place_tDpOT_(ptr noundef nonnull align 8 dereferenceable(49) %this, ptr noundef nonnull align 8 dereferenceable(32) %0) unnamed_addr #4 comdat align 2 {
entry:
  %this.addr = alloca ptr, align 8
  %.addr = alloca ptr, align 8
  store ptr %this, ptr %this.addr, align 8
  store ptr %0, ptr %.addr, align 8
  %this1 = load ptr, ptr %this.addr, align 8
  %1 = load ptr, ptr %.addr, align 8
  call void @_ZNSt17_Optional_payloadIN4node4quic3CIDELb1ELb0ELb0EECI2St22_Optional_payload_baseIS2_EIJR10ngtcp2_cidEEESt10in_place_tDpOT_(ptr noundef nonnull align 8 dereferenceable(49) %this1, ptr noundef nonnull align 8 dereferenceable(32) %1)
  ret void
}

; Function Attrs: mustprogress nounwind uwtable
define linkonce_odr dso_local noundef i64 @_ZN4node13SocketAddress9GetLengthEPK8sockaddr(ptr noundef %addr) #4 comdat align 2 {
entry:
  %addr.addr = alloca ptr, align 8
  store ptr %addr, ptr %addr.addr, align 8
  %0 = load ptr, ptr %addr.addr, align 8
  %sa_family = getelementptr inbounds %struct.sockaddr, ptr %0, i32 0, i32 0
  %1 = load i16, ptr %sa_family, align 2
  %conv = zext i16 %1 to i32
  %cmp = icmp eq i32 %conv, 2
  %cond = select i1 %cmp, i64 16, i64 28
  ret i64 %cond
}

; Function Attrs: mustprogress nounwind uwtable
define linkonce_odr dso_local void @_ZNSt17_Optional_payloadIN4node4quic3CIDELb0ELb0ELb0EEC2Ev(ptr noundef nonnull align 8 dereferenceable(49) %this) unnamed_addr #4 comdat align 2 {
entry:
  %this.addr = alloca ptr, align 8
  store ptr %this, ptr %this.addr, align 8
  %this1 = load ptr, ptr %this.addr, align 8
  call void @_ZNSt17_Optional_payloadIN4node4quic3CIDELb1ELb0ELb0EEC2Ev(ptr noundef nonnull align 8 dereferenceable(49) %this1) #3
  ret void
}

; Function Attrs: mustprogress nounwind uwtable
define linkonce_odr dso_local void @_ZNSt14_Optional_baseIN4node4quic3CIDELb0ELb0EEC2IJR10ngtcp2_cidETnNSt9enable_ifIX18is_constructible_vIS2_DpT_EEbE4typeELb0EEESt10in_place_tDpOS8_(ptr noundef nonnull align 8 dereferenceable(56) %this, ptr noundef nonnull align 8 dereferenceable(32) %__args) unnamed_addr #4 comdat align 2 {
entry:
  %this.addr = alloca ptr, align 8
  %__args.addr = alloca ptr, align 8
  store ptr %this, ptr %this.addr, align 8
  store ptr %__args, ptr %__args.addr, align 8
  %this1 = load ptr, ptr %this.addr, align 8
  %_M_payload = getelementptr inbounds %"struct.std::_Optional_base", ptr %this1, i32 0, i32 0
  %0 = load ptr, ptr %__args.addr, align 8
  call void @_ZNSt17_Optional_payloadIN4node4quic3CIDELb0ELb0ELb0EECI2St22_Optional_payload_baseIS2_EIJR10ngtcp2_cidEEESt10in_place_tDpOT_(ptr noundef nonnull align 8 dereferenceable(49) %_M_payload, ptr noundef nonnull align 8 dereferenceable(32) %0)
  ret void
}

; Function Attrs: mustprogress nounwind uwtable
define linkonce_odr dso_local noundef i64 @_ZN4node13SocketAddress9GetLengthEPK16sockaddr_storage(ptr noundef %addr) #4 comdat align 2 {
entry:
  %addr.addr = alloca ptr, align 8
  store ptr %addr, ptr %addr.addr, align 8
  %0 = load ptr, ptr %addr.addr, align 8
  %call = call noundef i64 @_ZN4node13SocketAddress9GetLengthEPK8sockaddr(ptr noundef %0)
  ret i64 %call
}

; Function Attrs: mustprogress nounwind uwtable
define linkonce_odr dso_local void @_ZNSt14_Optional_baseIN4node4quic3CIDELb0ELb0EEC2Ev(ptr noundef nonnull align 8 dereferenceable(56) %this) unnamed_addr #4 comdat align 2 {
entry:
  %this.addr = alloca ptr, align 8
  store ptr %this, ptr %this.addr, align 8
  %this1 = load ptr, ptr %this.addr, align 8
  %_M_payload = getelementptr inbounds %"struct.std::_Optional_base", ptr %this1, i32 0, i32 0
  call void @_ZNSt17_Optional_payloadIN4node4quic3CIDELb0ELb0ELb0EEC2Ev(ptr noundef nonnull align 8 dereferenceable(49) %_M_payload) #3
  ret void
}

; Function Attrs: mustprogress nounwind uwtable
define linkonce_odr dso_local void @_ZNSt8optionalIN4node4quic3CIDEEC2IR10ngtcp2_cidTnNSt9enable_ifIX7__and_vISt6__not_ISt7is_sameIS3_NSt9remove_cvINSt16remove_referenceIT_E4typeEE4typeEEES8_IS9_ISt10in_place_tSG_EESt16is_constructibleIS2_JSC_EES8_ISt14is_convertibleISC_S2_EEEEbE4typeELb0EEEOSC_(ptr noundef nonnull align 8 dereferenceable(56) %this, ptr noundef nonnull align 8 dereferenceable(32) %__t) unnamed_addr #4 comdat align 2 {
entry:
  %this.addr = alloca ptr, align 8
  %__t.addr = alloca ptr, align 8
  store ptr %this, ptr %this.addr, align 8
  store ptr %__t, ptr %__t.addr, align 8
  %this1 = load ptr, ptr %this.addr, align 8
  %0 = load ptr, ptr %__t.addr, align 8
  call void @_ZNSt14_Optional_baseIN4node4quic3CIDELb0ELb0EEC2IJR10ngtcp2_cidETnNSt9enable_ifIX18is_constructible_vIS2_DpT_EEbE4typeELb0EEESt10in_place_tDpOS8_(ptr noundef nonnull align 8 dereferenceable(56) %this1, ptr noundef nonnull align 8 dereferenceable(32) %0)
  ret void
}

; Function Attrs: mustprogress nounwind uwtable
define linkonce_odr dso_local noundef nonnull align 8 dereferenceable(8) ptr @_ZSt3minImERKT_S2_S2_(ptr noundef nonnull align 8 dereferenceable(8) %__a, ptr noundef nonnull align 8 dereferenceable(8) %__b) #4 comdat {
entry:
  %retval = alloca ptr, align 8
  %__a.addr = alloca ptr, align 8
  %__b.addr = alloca ptr, align 8
  store ptr %__a, ptr %__a.addr, align 8
  store ptr %__b, ptr %__b.addr, align 8
  %0 = load ptr, ptr %__b.addr, align 8
  %1 = load i64, ptr %0, align 8
  %2 = load ptr, ptr %__a.addr, align 8
  %3 = load i64, ptr %2, align 8
  %cmp = icmp ult i64 %1, %3
  br i1 %cmp, label %if.then, label %if.end

if.then:                                          ; preds = %entry
  %4 = load ptr, ptr %__b.addr, align 8
  store ptr %4, ptr %retval, align 8
  br label %return

if.end:                                           ; preds = %entry
  %5 = load ptr, ptr %__a.addr, align 8
  store ptr %5, ptr %retval, align 8
  br label %return

return:                                           ; preds = %if.end, %if.then
  %6 = load ptr, ptr %retval, align 8
  ret ptr %6
}

; Function Attrs: mustprogress nounwind uwtable
define linkonce_odr dso_local noundef i64 @_ZNK4node13SocketAddress6lengthEv(ptr noundef nonnull align 8 dereferenceable(136) %this) #4 comdat align 2 {
entry:
  %this.addr = alloca ptr, align 8
  store ptr %this, ptr %this.addr, align 8
  %this1 = load ptr, ptr %this.addr, align 8
  %address_ = getelementptr inbounds %"class.node::SocketAddress", ptr %this1, i32 0, i32 1
  %call = call noundef i64 @_ZN4node13SocketAddress9GetLengthEPK16sockaddr_storage(ptr noundef %address_)
  ret i64 %call
}

; Function Attrs: mustprogress nounwind uwtable
define linkonce_odr dso_local noundef ptr @_ZNK4node13SocketAddress4dataEv(ptr noundef nonnull align 8 dereferenceable(136) %this) #4 comdat align 2 {
entry:
  %this.addr = alloca ptr, align 8
  store ptr %this, ptr %this.addr, align 8
  %this1 = load ptr, ptr %this.addr, align 8
  %address_ = getelementptr inbounds %"class.node::SocketAddress", ptr %this1, i32 0, i32 1
  ret ptr %address_
}

; Function Attrs: mustprogress nounwind uwtable
define dso_local noundef ptr @_ZNK4node4quic11TokenSecretcvPKhEv(ptr noundef nonnull align 8 dereferenceable(24) %this) #4 align 2 {
entry:
  %this.addr = alloca ptr, align 8
  store ptr %this, ptr %this.addr, align 8
  %this1 = load ptr, ptr %this.addr, align 8
  %buf_ = getelementptr inbounds %"class.node::quic::TokenSecret", ptr %this1, i32 0, i32 1
  %arraydecay = getelementptr inbounds [16 x i8], ptr %buf_, i64 0, i64 0
  ret ptr %arraydecay
}

; Function Attrs: mustprogress nounwind uwtable
define linkonce_odr dso_local void @_ZNSt8optionalIN4node4quic3CIDEEC2ESt9nullopt_t(ptr noundef nonnull align 8 dereferenceable(56) %this) unnamed_addr #4 comdat align 2 {
entry:
  %this.addr = alloca ptr, align 8
  store ptr %this, ptr %this.addr, align 8
  %this1 = load ptr, ptr %this.addr, align 8
  call void @_ZNSt14_Optional_baseIN4node4quic3CIDELb0ELb0EEC2Ev(ptr noundef nonnull align 8 dereferenceable(56) %this1) #3
  ret void
}

; Function Attrs: mustprogress nounwind uwtable
define dso_local void @_ZN4node4quic10RetryToken8ValidateEjRKNS_13SocketAddressERKNS0_3CIDERKNS0_11TokenSecretEm(ptr noalias sret(%"class.std::optional") align 8 %agg.result, ptr noundef nonnull align 8 dereferenceable(104) %this, i32 noundef %version, ptr noundef nonnull align 8 dereferenceable(136) %addr, ptr noundef nonnull align 8 dereferenceable(48) %dcid, ptr noundef nonnull align 8 dereferenceable(24) %token_secret, i64 noundef %verification_expiration) #4 align 2 {
entry:
  %result.ptr = alloca ptr, align 8
  %this.addr = alloca ptr, align 8
  %version.addr = alloca i32, align 4
  %addr.addr = alloca ptr, align 8
  %dcid.addr = alloca ptr, align 8
  %token_secret.addr = alloca ptr, align 8
  %verification_expiration.addr = alloca i64, align 8
  %ocid = alloca %struct.ngtcp2_cid, align 8
  %ret = alloca i32, align 4
  store ptr %agg.result, ptr %result.ptr, align 8
  store ptr %this, ptr %this.addr, align 8
  store i32 %version, ptr %version.addr, align 4
  store ptr %addr, ptr %addr.addr, align 8
  store ptr %dcid, ptr %dcid.addr, align 8
  store ptr %token_secret, ptr %token_secret.addr, align 8
  store i64 %verification_expiration, ptr %verification_expiration.addr, align 8
  %this1 = load ptr, ptr %this.addr, align 8
  %ptr_ = getelementptr inbounds %"class.node::quic::RetryToken", ptr %this1, i32 0, i32 2
  %base = getelementptr inbounds %struct.ngtcp2_vec, ptr %ptr_, i32 0, i32 0
  %0 = load ptr, ptr %base, align 8
  %cmp = icmp eq ptr %0, null
  br i1 %cmp, label %if.then, label %lor.lhs.false

lor.lhs.false:                                    ; preds = %entry
  %ptr_2 = getelementptr inbounds %"class.node::quic::RetryToken", ptr %this1, i32 0, i32 2
  %len = getelementptr inbounds %struct.ngtcp2_vec, ptr %ptr_2, i32 0, i32 1
  %1 = load i64, ptr %len, align 8
  %cmp3 = icmp eq i64 %1, 0
  br i1 %cmp3, label %if.then, label %if.end

if.then:                                          ; preds = %lor.lhs.false, %entry
  call void @_ZNSt8optionalIN4node4quic3CIDEEC2ESt9nullopt_t(ptr noundef nonnull align 8 dereferenceable(56) %agg.result) #3
  br label %return

if.end:                                           ; preds = %lor.lhs.false
  %ptr_4 = getelementptr inbounds %"class.node::quic::RetryToken", ptr %this1, i32 0, i32 2
  %base5 = getelementptr inbounds %struct.ngtcp2_vec, ptr %ptr_4, i32 0, i32 0
  %2 = load ptr, ptr %base5, align 8
  %ptr_6 = getelementptr inbounds %"class.node::quic::RetryToken", ptr %this1, i32 0, i32 2
  %len7 = getelementptr inbounds %struct.ngtcp2_vec, ptr %ptr_6, i32 0, i32 1
  %3 = load i64, ptr %len7, align 8
  %4 = load ptr, ptr %token_secret.addr, align 8
  %call = call noundef ptr @_ZNK4node4quic11TokenSecretcvPKhEv(ptr noundef nonnull align 8 dereferenceable(24) %4)
  %5 = load i32, ptr %version.addr, align 4
  %6 = load ptr, ptr %addr.addr, align 8
  %call8 = call noundef ptr @_ZNK4node13SocketAddress4dataEv(ptr noundef nonnull align 8 dereferenceable(136) %6)
  %7 = load ptr, ptr %addr.addr, align 8
  %call9 = call noundef i64 @_ZNK4node13SocketAddress6lengthEv(ptr noundef nonnull align 8 dereferenceable(136) %7)
  %conv = trunc i64 %call9 to i32
  %8 = load ptr, ptr %dcid.addr, align 8
  %call10 = call noundef ptr @_ZNK4node4quic3CIDcvPK10ngtcp2_cidEv(ptr noundef nonnull align 8 dereferenceable(48) %8)
  %call11 = call noundef nonnull align 8 dereferenceable(8) ptr @_ZSt3minImERKT_S2_S2_(ptr noundef nonnull align 8 dereferenceable(8) %verification_expiration.addr, ptr noundef nonnull align 8 dereferenceable(8) @_ZN4node4quic10RetryToken30QUIC_MIN_RETRYTOKEN_EXPIRATIONE)
  %9 = load i64, ptr %call11, align 8
  %call12 = call i64 @uv_hrtime()
  %call13 = call i32 @ngtcp2_crypto_verify_retry_token(ptr noundef %ocid, ptr noundef %2, i64 noundef %3, ptr noundef %call, i64 noundef 16, i32 noundef %5, ptr noundef %call8, i32 noundef %conv, ptr noundef %call10, i64 noundef %9, i64 noundef %call12)
  store i32 %call13, ptr %ret, align 4
  %10 = load i32, ptr %ret, align 4
  %cmp14 = icmp ne i32 %10, 0
  br i1 %cmp14, label %if.then15, label %if.end17

if.then15:                                        ; preds = %if.end
  call void @_ZNSt8optionalIN4node4quic3CIDEEC2ESt9nullopt_t(ptr noundef nonnull align 8 dereferenceable(56) %agg.result) #3
  br label %return

if.end17:                                         ; preds = %if.end
  call void @_ZNSt8optionalIN4node4quic3CIDEEC2IR10ngtcp2_cidTnNSt9enable_ifIX7__and_vISt6__not_ISt7is_sameIS3_NSt9remove_cvINSt16remove_referenceIT_E4typeEE4typeEEES8_IS9_ISt10in_place_tSG_EESt16is_constructibleIS2_JSC_EES8_ISt14is_convertibleISC_S2_EEEEbE4typeELb0EEEOSC_(ptr noundef nonnull align 8 dereferenceable(56) %agg.result, ptr noundef nonnull align 8 dereferenceable(32) %ocid)
  br label %return

return:                                           ; preds = %if.end17, %if.then15, %if.then
  ret void
}