; Function Attrs: mustprogress nounwind uwtable
define dso_local void @_ZN4node4quic10RetryToken8ValidateEjRKNS_13SocketAddressERKNS0_3CIDERKNS0_11TokenSecretEm(ptr noalias sret(%"class.std::optional") align 8 %agg.result, ptr nocapture noundef nonnull readonly align 8 dereferenceable(104) %this, i32 noundef %version, ptr noundef nonnull align 8 dereferenceable(136) %addr, ptr noundef nonnull align 8 dereferenceable(48) %dcid, ptr noundef nonnull align 8 dereferenceable(24) %token_secret, i64 noundef %verification_expiration) local_unnamed_addr #3 align 2 {
entry:
  %ocid = alloca %struct.ngtcp2_cid, align 8
  %ptr_ = getelementptr inbounds i8, ptr %this, i64 88
  %0 = load ptr, ptr %ptr_, align 8
  %cmp = icmp eq ptr %0, null
  br i1 %cmp, label %return, label %lor.lhs.false

lor.lhs.false:                                    ; preds = %entry
  %len = getelementptr inbounds i8, ptr %this, i64 96
  %1 = load i64, ptr %len, align 8
  %cmp3 = icmp eq i64 %1, 0
  br i1 %cmp3, label %return, label %if.end

if.end:                                           ; preds = %lor.lhs.false
  %buf_.i = getelementptr inbounds i8, ptr %token_secret, i64 8
  %address_.i = getelementptr inbounds i8, ptr %addr, i64 8
  %2 = load i16, ptr %address_.i, align 8
  %cmp.i.i.i = icmp eq i16 %2, 2
  %conv = select i1 %cmp.i.i.i, i32 16, i32 28
  %call10 = tail call noundef ptr @_ZNK4node4quic3CIDcvPK10ngtcp2_cidEv(ptr noundef nonnull align 8 dereferenceable(48) %dcid) #17
  %.sroa.speculated = tail call i64 @llvm.umin.i64(i64 %verification_expiration, i64 1000000000)
  %call12 = tail call i64 @uv_hrtime() #17
  %call13 = call i32 @ngtcp2_crypto_verify_retry_token(ptr noundef nonnull %ocid, ptr noundef nonnull %0, i64 noundef %1, ptr noundef nonnull %buf_.i, i64 noundef 16, i32 noundef %version, ptr noundef nonnull %address_.i, i32 noundef %conv, ptr noundef %call10, i64 noundef %.sroa.speculated, i64 noundef %call12) #17
  %cmp14.not = icmp eq i32 %call13, 0
  br i1 %cmp14.not, label %if.end17, label %return

if.end17:                                         ; preds = %if.end
  call void @_ZN4node4quic3CIDC1ERK10ngtcp2_cid(ptr noundef nonnull align 8 dereferenceable(48) %agg.result, ptr noundef nonnull align 8 dereferenceable(32) %ocid) #17
  br label %return

return:                                           ; preds = %if.end, %entry, %lor.lhs.false, %if.end17
  %.sink = phi i8 [ 1, %if.end17 ], [ 0, %lor.lhs.false ], [ 0, %entry ], [ 0, %if.end ]
  %_M_engaged.i.i.i.i.i5 = getelementptr inbounds i8, ptr %agg.result, i64 48
  store i8 %.sink, ptr %_M_engaged.i.i.i.i.i5, align 8
  ret void
}